; ModuleID = 'bench/openjdk/original/jfrEventSetting.ll'
source_filename = "bench/openjdk/original/jfrEventSetting.ll"
target datalayout = "e-m:e-p270:32:32-p271:32:32-p272:64:64-i64:64-i128:128-f80:128-n8:16:32:64-S128"
target triple = "x86_64-pc-linux-gnu"

%union.JfrNativeSettings = type { [164 x %struct.jfrNativeEventSetting] }
%struct.jfrNativeEventSetting = type { i64, i64, i8, i8, i8, [5 x i8] }

@_ZN15JfrEventSetting19_jvm_event_settingsE = hidden local_unnamed_addr global %union.JfrNativeSettings zeroinitializer, align 8
@_ZN15JfrEventSetting15_internal_typesE = hidden local_unnamed_addr global i8 0, align 1
@llvm.global_ctors = appending global [0 x { i32, ptr, ptr }] zeroinitializer

; Function Attrs: mustprogress nofree norecurse nosync nounwind willreturn memory(write, argmem: none, inaccessiblemem: none) uwtable
define hidden noundef zeroext i1 @_ZN15JfrEventSetting13set_thresholdEll(i64 noundef %0, i64 noundef %1) local_unnamed_addr #0 align 2 {
  %3 = and i64 %0, 4294967295
  %4 = getelementptr inbounds [164 x %struct.jfrNativeEventSetting], ptr @_ZN15JfrEventSetting19_jvm_event_settingsE, i64 0, i64 %3
  store i64 %1, ptr %4, align 8
  ret i1 true
}

; Function Attrs: mustprogress nofree norecurse nosync nounwind willreturn memory(write, argmem: none, inaccessiblemem: none) uwtable
define hidden void @_ZN15JfrEventSetting17set_miscellaneousEll(i64 noundef %0, i64 noundef %1) local_unnamed_addr #0 align 2 {
  %3 = and i64 %0, 4294967295
  %4 = getelementptr inbounds [164 x %struct.jfrNativeEventSetting], ptr @_ZN15JfrEventSetting19_jvm_event_settingsE, i64 0, i64 %3, i32 1
  store i64 %1, ptr %4, align 8
  ret void
}

; Function Attrs: mustprogress nofree norecurse nosync nounwind willreturn memory(write, argmem: none, inaccessiblemem: none) uwtable
define hidden void @_ZN15JfrEventSetting14set_stacktraceElb(i64 noundef %0, i1 noundef zeroext %1) local_unnamed_addr #0 align 2 {
  %3 = zext i1 %1 to i8
  %4 = and i64 %0, 4294967295
  %5 = getelementptr inbounds [164 x %struct.jfrNativeEventSetting], ptr @_ZN15JfrEventSetting19_jvm_event_settingsE, i64 0, i64 %4, i32 2
  store i8 %3, ptr %5, align 8
  ret void
}

; Function Attrs: mustprogress nofree norecurse nosync nounwind willreturn memory(write, argmem: none, inaccessiblemem: none) uwtable
define hidden void @_ZN15JfrEventSetting11set_enabledElb(i64 noundef %0, i1 noundef zeroext %1) local_unnamed_addr #0 align 2 {
  %3 = zext i1 %1 to i8
  %4 = and i64 %0, 4294967295
  %5 = getelementptr inbounds [164 x %struct.jfrNativeEventSetting], ptr @_ZN15JfrEventSetting19_jvm_event_settingsE, i64 0, i64 %4, i32 3
  store i8 %3, ptr %5, align 1
  ret void
}

; Function Attrs: mustprogress nofree norecurse nosync nounwind willreturn memory(write, argmem: none, inaccessiblemem: none) uwtable
define hidden void @_ZN15JfrEventSetting9set_largeE10JfrEventId(i32 noundef %0) local_unnamed_addr #0 align 2 {
  %2 = zext i32 %0 to i64
  %3 = getelementptr inbounds [164 x %struct.jfrNativeEventSetting], ptr @_ZN15JfrEventSetting19_jvm_event_settingsE, i64 0, i64 %2, i32 4
  store i8 1, ptr %3, align 2
  ret void
}

; Function Attrs: mustprogress nofree norecurse nosync nounwind willreturn memory(write, argmem: none, inaccessiblemem: none) uwtable
define hidden void @_ZN15JfrEventSetting21unhide_internal_typesEv() local_unnamed_addr #0 align 2 {
  store i8 1, ptr @_ZN15JfrEventSetting15_internal_typesE, align 1
  ret void
}

; Function Attrs: mustprogress nofree norecurse nosync nounwind willreturn memory(read, argmem: none, inaccessiblemem: none) uwtable
define hidden noundef zeroext i1 @_ZN15JfrEventSetting25is_internal_types_visibleEv() local_unnamed_addr #1 align 2 {
  %1 = load i8, ptr @_ZN15JfrEventSetting15_internal_typesE, align 1
  %2 = trunc i8 %1 to i1
  ret i1 %2
}


!llvm.module.flags = !{!0, !1, !2, !3, !4, !5}

!0 = !{i32 7, !"Dwarf Version", i32 5}
!1 = !{i32 2, !"Debug Info Version", i32 3}
!2 = !{i32 1, !"wchar_size", i32 4}
!3 = !{i32 8, !"PIC Level", i32 2}
!4 = !{i32 7, !"uwtable", i32 2}
!5 = !{i32 7, !"frame-pointer", i32 2}
